; Function Attrs: nounwind uwtable
define internal fastcc range(i32 -2147483648, 1) i32 @cbs_vp9_write_render_size(ptr noundef %0, ptr noundef %1, ptr noundef readonly captures(none) %2) unnamed_addr #0 {
  %4 = getelementptr inbounds nuw i8, ptr %2, i64 34
  %5 = load i8, ptr %4, align 2, !tbaa !111
  %6 = zext i8 %5 to i32
  %7 = tail call i32 @ff_cbs_write_simple_unsigned(ptr noundef %0, ptr noundef %1, i32 noundef 1, ptr noundef nonnull @.str.46, i32 noundef %6) #8
  %8 = icmp slt i32 %7, 0
  br i1 %8, label %24, label %9

9:                                                ; preds = %3
  %10 = load i8, ptr %4, align 2, !tbaa !111
  %.not = icmp eq i8 %10, 0
  br i1 %.not, label %23, label %11

11:                                               ; preds = %9
  %12 = getelementptr inbounds nuw i8, ptr %2, i64 36
  %13 = load i16, ptr %12, align 2, !tbaa !112
  %14 = zext i16 %13 to i32
  %15 = tail call i32 @ff_cbs_write_simple_unsigned(ptr noundef %0, ptr noundef %1, i32 noundef 16, ptr noundef nonnull @.str.47, i32 noundef %14) #8
  %16 = icmp slt i32 %15, 0
  br i1 %16, label %24, label %17

17:                                               ; preds = %11
  %18 = getelementptr inbounds nuw i8, ptr %2, i64 38
  %19 = load i16, ptr %18, align 2, !tbaa !113
  %20 = zext i16 %19 to i32
  %21 = tail call i32 @ff_cbs_write_simple_unsigned(ptr noundef %0, ptr noundef %1, i32 noundef 16, ptr noundef nonnull @.str.48, i32 noundef %20) #8
  %22 = icmp slt i32 %21, 0
  br i1 %22, label %24, label %23

23:                                               ; preds = %17, %9
  br label %24

24:                                               ; preds = %17, %11, %3, %23
  %.0 = phi i32 [ 0, %23 ], [ %7, %3 ], [ %15, %11 ], [ %21, %17 ]
  ret i32 %.0
}